; Function Attrs: nounwind uwtable
define internal fastcc i32 @Gia_ObjLevelId(ptr captures(none) %.160.val, i32 noundef %0) unnamed_addr #0 {
  %2 = add nsw i32 %0, 1
  %3 = getelementptr inbounds nuw i8, ptr %.160.val, i64 4
  %4 = load i32, ptr %3, align 4
  %.not.i.not.i = icmp slt i32 %0, %4
  br i1 %.not.i.not.i, label %Vec_IntGetEntry.exit, label %5

5:                                                ; preds = %1
  %6 = load i32, ptr %.160.val, align 8
  %7 = shl nsw i32 %6, 1
  %.not.i = icmp slt i32 %0, %7
  %.not.i.i.not.i = icmp sgt i32 %6, %0
  br i1 %.not.i, label %20, label %8

8:                                                ; preds = %5
  br i1 %.not.i.i.not.i, label %Vec_IntGrow.exit.i.i, label %9

9:                                                ; preds = %8
  %10 = getelementptr inbounds nuw i8, ptr %.160.val, i64 8
  %11 = load ptr, ptr %10, align 8
  %.not9.i.i.i = icmp eq ptr %11, null
  %12 = sext i32 %2 to i64
  %13 = shl nsw i64 %12, 2
  br i1 %.not9.i.i.i, label %16, label %14

14:                                               ; preds = %9
  %15 = tail call ptr @realloc(ptr noundef nonnull %11, i64 noundef %13) #30
  br label %18

16:                                               ; preds = %9
  %17 = tail call noalias ptr @malloc(i64 noundef %13) #28
  br label %18

18:                                               ; preds = %16, %14
  %19 = phi ptr [ %15, %14 ], [ %17, %16 ]
  store ptr %19, ptr %10, align 8
  br label %Vec_IntGrow.exit.sink.split.i.i

20:                                               ; preds = %5
  br i1 %.not.i.i.not.i, label %Vec_IntGrow.exit.i.i, label %21

21:                                               ; preds = %20
  %22 = getelementptr inbounds nuw i8, ptr %.160.val, i64 8
  %23 = load ptr, ptr %22, align 8
  %.not9.i21.i.i = icmp eq ptr %23, null
  %24 = sext i32 %7 to i64
  %25 = shl nsw i64 %24, 2
  br i1 %.not9.i21.i.i, label %28, label %26

26:                                               ; preds = %21
  %27 = tail call ptr @realloc(ptr noundef nonnull %23, i64 noundef %25) #30
  br label %30

28:                                               ; preds = %21
  %29 = tail call noalias ptr @malloc(i64 noundef %25) #28
  br label %30

30:                                               ; preds = %28, %26
  %31 = phi ptr [ %27, %26 ], [ %29, %28 ]
  store ptr %31, ptr %22, align 8
  br label %Vec_IntGrow.exit.sink.split.i.i

Vec_IntGrow.exit.sink.split.i.i:                  ; preds = %30, %18
  %.sink.i.i = phi i32 [ %7, %30 ], [ %2, %18 ]
  store i32 %.sink.i.i, ptr %.160.val, align 8
  %.pre.i = load i32, ptr %3, align 4
  br label %Vec_IntGrow.exit.i.i

Vec_IntGrow.exit.i.i:                             ; preds = %Vec_IntGrow.exit.sink.split.i.i, %20, %8
  %32 = phi i32 [ %.pre.i, %Vec_IntGrow.exit.sink.split.i.i ], [ %4, %20 ], [ %4, %8 ]
  %.not3.i = icmp sgt i32 %32, %0
  br i1 %.not3.i, label %._crit_edge.i.i, label %.lr.ph.i.i

.lr.ph.i.i:                                       ; preds = %Vec_IntGrow.exit.i.i
  %33 = getelementptr inbounds nuw i8, ptr %.160.val, i64 8
  %34 = sext i32 %32 to i64
  %wide.trip.count.i.i = sext i32 %2 to i64
  br label %35

35:                                               ; preds = %35, %.lr.ph.i.i
  %indvars.iv.i.i = phi i64 [ %34, %.lr.ph.i.i ], [ %indvars.iv.next.i.i, %35 ]
  %36 = load ptr, ptr %33, align 8
  %37 = getelementptr inbounds i32, ptr %36, i64 %indvars.iv.i.i
  store i32 0, ptr %37, align 4
  %indvars.iv.next.i.i = add nsw i64 %indvars.iv.i.i, 1
  %exitcond.not.i.i = icmp eq i64 %indvars.iv.next.i.i, %wide.trip.count.i.i
  br i1 %exitcond.not.i.i, label %._crit_edge.i.i, label %35, !llvm.loop !14

._crit_edge.i.i:                                  ; preds = %35, %Vec_IntGrow.exit.i.i
  store i32 %2, ptr %3, align 4
  br label %Vec_IntGetEntry.exit

Vec_IntGetEntry.exit:                             ; preds = %1, %._crit_edge.i.i
  %38 = getelementptr i8, ptr %.160.val, i64 8
  %.val.i = load ptr, ptr %38, align 8
  %39 = sext i32 %0 to i64
  %40 = getelementptr inbounds i32, ptr %.val.i, i64 %39
  %41 = load i32, ptr %40, align 4
  ret i32 %41
}